target datalayout = "e-m:e-p270:32:32-p271:32:32-p272:64:64-i64:64-i128:128-f80:128-n8:16:32:64-S128"
target triple = "x86_64-pc-linux-gnu"

%struct.strview_t = type { ptr, i64 }

; Function Attrs: nounwind uwtable
define internal i32 @strview_cmp(ptr %0, i64 %1, ptr %2, i64 %3) #0 {
  %5 = alloca i32, align 4
  %6 = alloca %struct.strview_t, align 8
  %7 = alloca %struct.strview_t, align 8
  %8 = alloca i64, align 8
  %9 = alloca i32, align 4
  %10 = getelementptr inbounds { ptr, i64 }, ptr %6, i32 0, i32 0
  store ptr %0, ptr %10, align 8
  %11 = getelementptr inbounds { ptr, i64 }, ptr %6, i32 0, i32 1
  store i64 %1, ptr %11, align 8
  %12 = getelementptr inbounds { ptr, i64 }, ptr %7, i32 0, i32 0
  store ptr %2, ptr %12, align 8
  %13 = getelementptr inbounds { ptr, i64 }, ptr %7, i32 0, i32 1
  store i64 %3, ptr %13, align 8
  %14 = getelementptr inbounds %struct.strview_t, ptr %6, i32 0, i32 1
  %15 = load i64, ptr %14, align 8
  %16 = getelementptr inbounds %struct.strview_t, ptr %7, i32 0, i32 1
  %17 = load i64, ptr %16, align 8
  %18 = icmp ugt i64 %15, %17
  br i1 %18, label %19, label %22

19:                                               ; preds = %4
  %20 = getelementptr inbounds %struct.strview_t, ptr %7, i32 0, i32 1
  %21 = load i64, ptr %20, align 8
  br label %25

22:                                               ; preds = %4
  %23 = getelementptr inbounds %struct.strview_t, ptr %6, i32 0, i32 1
  %24 = load i64, ptr %23, align 8
  br label %25

25:                                               ; preds = %22, %19
  %26 = phi i64 [ %21, %19 ], [ %24, %22 ]
  store i64 %26, ptr %8, align 8
  %27 = getelementptr inbounds %struct.strview_t, ptr %6, i32 0, i32 0
  %28 = load ptr, ptr %27, align 8
  %29 = getelementptr inbounds %struct.strview_t, ptr %7, i32 0, i32 0
  %30 = load ptr, ptr %29, align 8
  %31 = load i64, ptr %8, align 8
  %32 = call i32 @strncmp(ptr noundef %28, ptr noundef %30, i64 noundef %31) #3
  store i32 %32, ptr %9, align 4
  %33 = load i32, ptr %9, align 4
  %34 = icmp ne i32 %33, 0
  br i1 %34, label %35, label %37

35:                                               ; preds = %25
  %36 = load i32, ptr %9, align 4
  store i32 %36, ptr %5, align 4
  br label %52

37:                                               ; preds = %25
  %38 = getelementptr inbounds %struct.strview_t, ptr %6, i32 0, i32 1
  %39 = load i64, ptr %38, align 8
  %40 = getelementptr inbounds %struct.strview_t, ptr %7, i32 0, i32 1
  %41 = load i64, ptr %40, align 8
  %42 = icmp ugt i64 %39, %41
  br i1 %42, label %43, label %44

43:                                               ; preds = %37
  store i32 1, ptr %5, align 4
  br label %52

44:                                               ; preds = %37
  %45 = getelementptr inbounds %struct.strview_t, ptr %6, i32 0, i32 1
  %46 = load i64, ptr %45, align 8
  %47 = getelementptr inbounds %struct.strview_t, ptr %7, i32 0, i32 1
  %48 = load i64, ptr %47, align 8
  %49 = icmp ult i64 %46, %48
  br i1 %49, label %50, label %51

50:                                               ; preds = %44
  store i32 -1, ptr %5, align 4
  br label %52

51:                                               ; preds = %44
  store i32 0, ptr %5, align 4
  br label %52

52:                                               ; preds = %51, %50, %43, %35
  %53 = load i32, ptr %5, align 4
  ret i32 %53
}

; Function Attrs: nounwind uwtable
define internal zeroext i1 @strview_eq(ptr %0, i64 %1, ptr %2, i64 %3) #0 {
  %5 = alloca %struct.strview_t, align 8
  %6 = alloca %struct.strview_t, align 8
  %7 = getelementptr inbounds { ptr, i64 }, ptr %5, i32 0, i32 0
  store ptr %0, ptr %7, align 8
  %8 = getelementptr inbounds { ptr, i64 }, ptr %5, i32 0, i32 1
  store i64 %1, ptr %8, align 8
  %9 = getelementptr inbounds { ptr, i64 }, ptr %6, i32 0, i32 0
  store ptr %2, ptr %9, align 8
  %10 = getelementptr inbounds { ptr, i64 }, ptr %6, i32 0, i32 1
  store i64 %3, ptr %10, align 8
  %11 = getelementptr inbounds { ptr, i64 }, ptr %5, i32 0, i32 0
  %12 = load ptr, ptr %11, align 8
  %13 = getelementptr inbounds { ptr, i64 }, ptr %5, i32 0, i32 1
  %14 = load i64, ptr %13, align 8
  %15 = getelementptr inbounds { ptr, i64 }, ptr %6, i32 0, i32 0
  %16 = load ptr, ptr %15, align 8
  %17 = getelementptr inbounds { ptr, i64 }, ptr %6, i32 0, i32 1
  %18 = load i64, ptr %17, align 8
  %19 = call i32 @strview_cmp(ptr %12, i64 %14, ptr %16, i64 %18)
  %20 = icmp eq i32 %19, 0
  ret i1 %20
}

; Function Attrs: nounwind uwtable
define internal { ptr, i64 } @strview(ptr noundef %0, i8 noundef signext %1) #0 {
  %3 = alloca %struct.strview_t, align 8
  %4 = alloca ptr, align 8
  %5 = alloca i8, align 1
  %6 = alloca ptr, align 8
  store ptr %0, ptr %4, align 8
  store i8 %1, ptr %5, align 1
  %7 = load ptr, ptr %4, align 8
  %8 = load i8, ptr %5, align 1
  %9 = sext i8 %8 to i32
  %10 = call ptr @strchr(ptr noundef %7, i32 noundef %9) #3
  store ptr %10, ptr %6, align 8
  %11 = load ptr, ptr %6, align 8
  %12 = icmp ne ptr %11, null
  br i1 %12, label %13, label %22

13:                                               ; preds = %2
  %14 = getelementptr inbounds %struct.strview_t, ptr %3, i32 0, i32 0
  %15 = load ptr, ptr %4, align 8
  store ptr %15, ptr %14, align 8
  %16 = getelementptr inbounds %struct.strview_t, ptr %3, i32 0, i32 1
  %17 = load ptr, ptr %6, align 8
  %18 = load ptr, ptr %4, align 8
  %19 = ptrtoint ptr %17 to i64
  %20 = ptrtoint ptr %18 to i64
  %21 = sub i64 %19, %20
  store i64 %21, ptr %16, align 8
  br label %28

22:                                               ; preds = %2
  %23 = getelementptr inbounds %struct.strview_t, ptr %3, i32 0, i32 0
  %24 = load ptr, ptr %4, align 8
  store ptr %24, ptr %23, align 8
  %25 = getelementptr inbounds %struct.strview_t, ptr %3, i32 0, i32 1
  %26 = load ptr, ptr %4, align 8
  %27 = call i64 @strlen(ptr noundef %26) #3
  store i64 %27, ptr %25, align 8
  br label %28

28:                                               ; preds = %22, %13
  %29 = load { ptr, i64 }, ptr %3, align 8
  ret { ptr, i64 } %29
}

; Function Attrs: nounwind uwtable
define internal zeroext i1 @strview_str_eq(ptr %0, i64 %1, ptr noundef %2) #0 {
  %4 = alloca %struct.strview_t, align 8
  %5 = alloca ptr, align 8
  %6 = alloca %struct.strview_t, align 8
  %7 = getelementptr inbounds { ptr, i64 }, ptr %4, i32 0, i32 0
  store ptr %0, ptr %7, align 8
  %8 = getelementptr inbounds { ptr, i64 }, ptr %4, i32 0, i32 1
  store i64 %1, ptr %8, align 8
  store ptr %2, ptr %5, align 8
  %9 = load ptr, ptr %5, align 8
  %10 = call { ptr, i64 } @strview(ptr noundef %9, i8 noundef signext 0)
  %11 = getelementptr inbounds { ptr, i64 }, ptr %6, i32 0, i32 0
  %12 = extractvalue { ptr, i64 } %10, 0
  store ptr %12, ptr %11, align 8
  %13 = getelementptr inbounds { ptr, i64 }, ptr %6, i32 0, i32 1
  %14 = extractvalue { ptr, i64 } %10, 1
  store i64 %14, ptr %13, align 8
  %15 = getelementptr inbounds { ptr, i64 }, ptr %4, i32 0, i32 0
  %16 = load ptr, ptr %15, align 8
  %17 = getelementptr inbounds { ptr, i64 }, ptr %4, i32 0, i32 1
  %18 = load i64, ptr %17, align 8
  %19 = getelementptr inbounds { ptr, i64 }, ptr %6, i32 0, i32 0
  %20 = load ptr, ptr %19, align 8
  %21 = getelementptr inbounds { ptr, i64 }, ptr %6, i32 0, i32 1
  %22 = load i64, ptr %21, align 8
  %23 = call zeroext i1 @strview_eq(ptr %16, i64 %18, ptr %20, i64 %22)
  ret i1 %23
}